target datalayout = "e-m:e-p270:32:32-p271:32:32-p272:64:64-i64:64-i128:128-f80:128-n8:16:32:64-S128"
target triple = "x86_64-pc-linux-gnu"

; Function Attrs: mustprogress uwtable
define hidden noundef i32 @_Z10solve_deg4dddddRdS_S_S_(double noundef %0, double noundef %1, double noundef %2, double noundef %3, double noundef %4, ptr noundef nonnull align 8 dereferenceable(8) %5, ptr noundef nonnull align 8 dereferenceable(8) %6, ptr noundef nonnull align 8 dereferenceable(8) %7, ptr noundef nonnull align 8 dereferenceable(8) %8) #6 {
  %10 = alloca i32, align 4
  %11 = alloca double, align 8
  %12 = alloca double, align 8
  %13 = alloca double, align 8
  %14 = alloca double, align 8
  %15 = alloca double, align 8
  %16 = alloca ptr, align 8
  %17 = alloca ptr, align 8
  %18 = alloca ptr, align 8
  %19 = alloca ptr, align 8
  %20 = alloca double, align 8
  %21 = alloca double, align 8
  %22 = alloca double, align 8
  %23 = alloca double, align 8
  %24 = alloca double, align 8
  %25 = alloca double, align 8
  %26 = alloca double, align 8
  %27 = alloca i32, align 4
  %28 = alloca double, align 8
  %29 = alloca double, align 8
  %30 = alloca double, align 8
  %31 = alloca i32, align 4
  %32 = alloca double, align 8
  %33 = alloca double, align 8
  %34 = alloca double, align 8
  %35 = alloca double, align 8
  %36 = alloca double, align 8
  %37 = alloca double, align 8
  %38 = alloca double, align 8
  %39 = alloca double, align 8
  %40 = alloca double, align 8
  %41 = alloca double, align 8
  %42 = alloca double, align 8
  %43 = alloca double, align 8
  store double %0, ptr %11, align 8
  store double %1, ptr %12, align 8
  store double %2, ptr %13, align 8
  store double %3, ptr %14, align 8
  store double %4, ptr %15, align 8
  store ptr %5, ptr %16, align 8
  store ptr %6, ptr %17, align 8
  store ptr %7, ptr %18, align 8
  store ptr %8, ptr %19, align 8
  %44 = load double, ptr %11, align 8
  %45 = fcmp oeq double %44, 0.000000e+00
  br i1 %45, label %46, label %56

46:                                               ; preds = %9
  %47 = load ptr, ptr %19, align 8
  store double 0.000000e+00, ptr %47, align 8
  %48 = load double, ptr %12, align 8
  %49 = load double, ptr %13, align 8
  %50 = load double, ptr %14, align 8
  %51 = load double, ptr %15, align 8
  %52 = load ptr, ptr %16, align 8
  %53 = load ptr, ptr %17, align 8
  %54 = load ptr, ptr %18, align 8
  %55 = call noundef i32 @_Z10solve_deg3ddddRdS_S_(double noundef %48, double noundef %49, double noundef %50, double noundef %51, ptr noundef nonnull align 8 dereferenceable(8) %52, ptr noundef nonnull align 8 dereferenceable(8) %53, ptr noundef nonnull align 8 dereferenceable(8) %54)
  store i32 %55, ptr %10, align 4
  br label %231

56:                                               ; preds = %9
  %57 = load double, ptr %11, align 8
  %58 = fdiv double 1.000000e+00, %57
  store double %58, ptr %20, align 8
  %59 = load double, ptr %20, align 8
  %60 = load double, ptr %12, align 8
  %61 = fmul double %60, %59
  store double %61, ptr %12, align 8
  %62 = load double, ptr %20, align 8
  %63 = load double, ptr %13, align 8
  %64 = fmul double %63, %62
  store double %64, ptr %13, align 8
  %65 = load double, ptr %20, align 8
  %66 = load double, ptr %14, align 8
  %67 = fmul double %66, %65
  store double %67, ptr %14, align 8
  %68 = load double, ptr %20, align 8
  %69 = load double, ptr %15, align 8
  %70 = fmul double %69, %68
  store double %70, ptr %15, align 8
  %71 = load double, ptr %12, align 8
  %72 = load double, ptr %12, align 8
  %73 = fmul double %71, %72
  store double %73, ptr %21, align 8
  %74 = load double, ptr %12, align 8
  %75 = load double, ptr %13, align 8
  %76 = fmul double %74, %75
  store double %76, ptr %22, align 8
  %77 = load double, ptr %21, align 8
  %78 = load double, ptr %12, align 8
  %79 = fmul double %77, %78
  store double %79, ptr %23, align 8
  %80 = load double, ptr %13, align 8
  %81 = fneg double %80
  %82 = load double, ptr %14, align 8
  %83 = load double, ptr %12, align 8
  %84 = load double, ptr %15, align 8
  %85 = fmul double 4.000000e+00, %84
  %86 = fneg double %85
  %87 = call double @llvm.fmuladd.f64(double %82, double %83, double %86)
  %88 = load double, ptr %13, align 8
  %89 = fmul double 4.000000e+00, %88
  %90 = load double, ptr %15, align 8
  %91 = load double, ptr %14, align 8
  %92 = load double, ptr %14, align 8
  %93 = fmul double %91, %92
  %94 = fneg double %93
  %95 = call double @llvm.fmuladd.f64(double %89, double %90, double %94)
  %96 = load double, ptr %21, align 8
  %97 = load double, ptr %15, align 8
  %98 = fneg double %96
  %99 = call double @llvm.fmuladd.f64(double %98, double %97, double %95)
  %100 = call noundef i32 @_Z10solve_deg3ddddRdS_S_(double noundef 1.000000e+00, double noundef %81, double noundef %87, double noundef %99, ptr noundef nonnull align 8 dereferenceable(8) %24, ptr noundef nonnull align 8 dereferenceable(8) %25, ptr noundef nonnull align 8 dereferenceable(8) %26)
  store i32 %100, ptr %27, align 4
  %101 = load i32, ptr %27, align 4
  %102 = icmp eq i32 %101, 0
  br i1 %102, label %103, label %104

103:                                              ; preds = %56
  store i32 0, ptr %10, align 4
  br label %231

104:                                              ; preds = %56
  %105 = load double, ptr %21, align 8
  %106 = load double, ptr %13, align 8
  %107 = fneg double %106
  %108 = call double @llvm.fmuladd.f64(double 2.500000e-01, double %105, double %107)
  %109 = load double, ptr %24, align 8
  %110 = fadd double %108, %109
  store double %110, ptr %28, align 8
  %111 = load double, ptr %28, align 8
  %112 = fcmp olt double %111, 0.000000e+00
  br i1 %112, label %113, label %114

113:                                              ; preds = %104
  store i32 0, ptr %10, align 4
  br label %231

114:                                              ; preds = %104
  %115 = load double, ptr %28, align 8
  %116 = call double @sqrt(double noundef %115) #3
  store double %116, ptr %29, align 8
  %117 = load double, ptr %29, align 8
  %118 = fdiv double 1.000000e+00, %117
  store double %118, ptr %30, align 8
  store i32 0, ptr %31, align 4
  %119 = load double, ptr %29, align 8
  %120 = fcmp olt double %119, 0x3DA5FD7FE1796495
  br i1 %120, label %121, label %145

121:                                              ; preds = %114
  %122 = load double, ptr %24, align 8
  %123 = load double, ptr %24, align 8
  %124 = load double, ptr %15, align 8
  %125 = fmul double 4.000000e+00, %124
  %126 = fneg double %125
  %127 = call double @llvm.fmuladd.f64(double %122, double %123, double %126)
  store double %127, ptr %34, align 8
  %128 = load double, ptr %34, align 8
  %129 = fcmp olt double %128, 0.000000e+00
  br i1 %129, label %130, label %131

130:                                              ; preds = %121
  store double -1.000000e+00, ptr %33, align 8
  store double -1.000000e+00, ptr %32, align 8
  br label %144

131:                                              ; preds = %121
  %132 = load double, ptr %34, align 8
  %133 = call double @sqrt(double noundef %132) #3
  store double %133, ptr %35, align 8
  %134 = load double, ptr %21, align 8
  %135 = load double, ptr %13, align 8
  %136 = fmul double 2.000000e+00, %135
  %137 = fneg double %136
  %138 = call double @llvm.fmuladd.f64(double 7.500000e-01, double %134, double %137)
  %139 = load double, ptr %35, align 8
  %140 = call double @llvm.fmuladd.f64(double 2.000000e+00, double %139, double %138)
  store double %140, ptr %32, align 8
  %141 = load double, ptr %32, align 8
  %142 = load double, ptr %35, align 8
  %143 = call double @llvm.fmuladd.f64(double -4.000000e+00, double %142, double %141)
  store double %143, ptr %33, align 8
  br label %144

144:                                              ; preds = %131, %130
  br label %169

145:                                              ; preds = %114
  %146 = load double, ptr %21, align 8
  %147 = load double, ptr %13, align 8
  %148 = fmul double 2.000000e+00, %147
  %149 = fneg double %148
  %150 = call double @llvm.fmuladd.f64(double 7.500000e-01, double %146, double %149)
  %151 = load double, ptr %28, align 8
  %152 = fsub double %150, %151
  store double %152, ptr %36, align 8
  %153 = load double, ptr %30, align 8
  %154 = fmul double 2.500000e-01, %153
  %155 = load double, ptr %22, align 8
  %156 = load double, ptr %14, align 8
  %157 = fmul double 8.000000e+00, %156
  %158 = fneg double %157
  %159 = call double @llvm.fmuladd.f64(double 4.000000e+00, double %155, double %158)
  %160 = load double, ptr %23, align 8
  %161 = fsub double %159, %160
  %162 = fmul double %154, %161
  store double %162, ptr %37, align 8
  %163 = load double, ptr %36, align 8
  %164 = load double, ptr %37, align 8
  %165 = fadd double %163, %164
  store double %165, ptr %32, align 8
  %166 = load double, ptr %36, align 8
  %167 = load double, ptr %37, align 8
  %168 = fsub double %166, %167
  store double %168, ptr %33, align 8
  br label %169

169:                                              ; preds = %145, %144
  %170 = load double, ptr %12, align 8
  %171 = fmul double 2.500000e-01, %170
  store double %171, ptr %38, align 8
  %172 = load double, ptr %29, align 8
  %173 = fmul double 5.000000e-01, %172
  store double %173, ptr %39, align 8
  %174 = load double, ptr %32, align 8
  %175 = fcmp oge double %174, 0.000000e+00
  br i1 %175, label %176, label %192

176:                                              ; preds = %169
  %177 = load double, ptr %32, align 8
  %178 = call double @sqrt(double noundef %177) #3
  store double %178, ptr %40, align 8
  store i32 2, ptr %31, align 4
  %179 = load double, ptr %40, align 8
  %180 = fmul double 5.000000e-01, %179
  store double %180, ptr %41, align 8
  %181 = load double, ptr %39, align 8
  %182 = load double, ptr %41, align 8
  %183 = fadd double %181, %182
  %184 = load double, ptr %38, align 8
  %185 = fsub double %183, %184
  %186 = load ptr, ptr %16, align 8
  store double %185, ptr %186, align 8
  %187 = load ptr, ptr %16, align 8
  %188 = load double, ptr %187, align 8
  %189 = load double, ptr %40, align 8
  %190 = fsub double %188, %189
  %191 = load ptr, ptr %17, align 8
  store double %190, ptr %191, align 8
  br label %192

192:                                              ; preds = %176, %169
  %193 = load double, ptr %33, align 8
  %194 = fcmp oge double %193, 0.000000e+00
  br i1 %194, label %195, label %229

195:                                              ; preds = %192
  %196 = load double, ptr %33, align 8
  %197 = call double @sqrt(double noundef %196) #3
  store double %197, ptr %42, align 8
  %198 = load double, ptr %42, align 8
  %199 = fmul double 5.000000e-01, %198
  store double %199, ptr %43, align 8
  %200 = load i32, ptr %31, align 4
  %201 = icmp eq i32 %200, 0
  br i1 %201, label %202, label %215

202:                                              ; preds = %195
  %203 = load double, ptr %39, align 8
  %204 = fneg double %203
  %205 = load double, ptr %43, align 8
  %206 = fadd double %204, %205
  %207 = load double, ptr %38, align 8
  %208 = fsub double %206, %207
  %209 = load ptr, ptr %16, align 8
  store double %208, ptr %209, align 8
  %210 = load ptr, ptr %16, align 8
  %211 = load double, ptr %210, align 8
  %212 = load double, ptr %42, align 8
  %213 = fsub double %211, %212
  %214 = load ptr, ptr %17, align 8
  store double %213, ptr %214, align 8
  store i32 2, ptr %31, align 4
  br label %228

215:                                              ; preds = %195
  %216 = load double, ptr %39, align 8
  %217 = fneg double %216
  %218 = load double, ptr %43, align 8
  %219 = fadd double %217, %218
  %220 = load double, ptr %38, align 8
  %221 = fsub double %219, %220
  %222 = load ptr, ptr %18, align 8
  store double %221, ptr %222, align 8
  %223 = load ptr, ptr %18, align 8
  %224 = load double, ptr %223, align 8
  %225 = load double, ptr %42, align 8
  %226 = fsub double %224, %225
  %227 = load ptr, ptr %19, align 8
  store double %226, ptr %227, align 8
  store i32 4, ptr %31, align 4
  br label %228

228:                                              ; preds = %215, %202
  br label %229

229:                                              ; preds = %228, %192
  %230 = load i32, ptr %31, align 4
  store i32 %230, ptr %10, align 4
  br label %231

231:                                              ; preds = %229, %113, %103, %46
  %232 = load i32, ptr %10, align 4
  ret i32 %232
}