; Function Attrs: mustprogress nofree nounwind willreturn memory(write) uwtable
define hidden noundef range(i32 0, 5) i32 @_Z10solve_deg4dddddRdS_S_S_(double noundef %0, double noundef %1, double noundef %2, double noundef %3, double noundef %4, ptr nocapture noundef nonnull writeonly align 8 dereferenceable(8) %5, ptr nocapture noundef nonnull writeonly align 8 dereferenceable(8) %6, ptr nocapture noundef nonnull writeonly align 8 dereferenceable(8) %7, ptr nocapture noundef nonnull writeonly align 8 dereferenceable(8) %8) local_unnamed_addr #3 {
  %10 = alloca double, align 8
  %11 = alloca double, align 8
  %12 = alloca double, align 8
  %13 = fcmp oeq double %0, 0.000000e+00
  br i1 %13, label %14, label %16

14:                                               ; preds = %9
  store double 0.000000e+00, ptr %8, align 8
  %15 = tail call noundef i32 @_Z10solve_deg3ddddRdS_S_(double noundef %1, double noundef %2, double noundef %3, double noundef %4, ptr noundef nonnull align 8 dereferenceable(8) %5, ptr noundef nonnull align 8 dereferenceable(8) %6, ptr noundef nonnull align 8 dereferenceable(8) %7)
  br label %.thread100

16:                                               ; preds = %9
  %17 = fdiv double 1.000000e+00, %0
  %18 = fmul double %17, %1
  %19 = fmul double %17, %2
  %20 = fmul double %17, %3
  %21 = fmul double %17, %4
  %22 = fmul double %18, %18
  %23 = fmul double %18, %19
  %24 = fmul double %18, %22
  %25 = fneg double %19
  %26 = fmul double %21, -4.000000e+00
  %27 = tail call double @llvm.fmuladd.f64(double %20, double %18, double %26)
  %28 = fmul double %19, 4.000000e+00
  %29 = fneg double %20
  %30 = fmul double %20, %29
  %31 = tail call double @llvm.fmuladd.f64(double %28, double %21, double %30)
  %32 = fneg double %22
  %33 = tail call double @llvm.fmuladd.f64(double %32, double %21, double %31)
  %34 = call noundef i32 @_Z10solve_deg3ddddRdS_S_(double noundef 1.000000e+00, double noundef %25, double noundef %27, double noundef %33, ptr noundef nonnull align 8 dereferenceable(8) %10, ptr noundef nonnull align 8 dereferenceable(8) %11, ptr noundef nonnull align 8 dereferenceable(8) %12)
  %35 = icmp eq i32 %34, 0
  br i1 %35, label %.thread100, label %36

36:                                               ; preds = %16
  %37 = tail call double @llvm.fmuladd.f64(double %22, double 2.500000e-01, double %25)
  %38 = load double, ptr %10, align 8
  %39 = fadd double %37, %38
  %40 = fcmp olt double %39, 0.000000e+00
  br i1 %40, label %.thread100, label %41

41:                                               ; preds = %36
  %42 = tail call double @sqrt(double noundef %39) #8
  %43 = fcmp olt double %42, 0x3DA5FD7FE1796495
  br i1 %43, label %44, label %53

44:                                               ; preds = %41
  %45 = tail call double @llvm.fmuladd.f64(double %38, double %38, double %26)
  %46 = fcmp olt double %45, 0.000000e+00
  br i1 %46, label %.thread100, label %47

47:                                               ; preds = %44
  %48 = tail call double @sqrt(double noundef %45) #8
  %49 = fmul double %19, -2.000000e+00
  %50 = tail call double @llvm.fmuladd.f64(double %22, double 7.500000e-01, double %49)
  %51 = tail call double @llvm.fmuladd.f64(double %48, double 2.000000e+00, double %50)
  %52 = tail call double @llvm.fmuladd.f64(double %48, double -4.000000e+00, double %51)
  br label %65

53:                                               ; preds = %41
  %54 = fdiv double 1.000000e+00, %42
  %55 = fmul double %19, -2.000000e+00
  %56 = tail call double @llvm.fmuladd.f64(double %22, double 7.500000e-01, double %55)
  %57 = fsub double %56, %39
  %58 = fmul double %54, 2.500000e-01
  %59 = fmul double %20, -8.000000e+00
  %60 = tail call double @llvm.fmuladd.f64(double %23, double 4.000000e+00, double %59)
  %61 = fsub double %60, %24
  %62 = fmul double %61, %58
  %63 = fadd double %57, %62
  %64 = fsub double %57, %62
  br label %65

65:                                               ; preds = %47, %53
  %.093 = phi double [ %52, %47 ], [ %64, %53 ]
  %.092 = phi double [ %51, %47 ], [ %63, %53 ]
  %66 = fmul double %18, 2.500000e-01
  %67 = fmul double %42, 5.000000e-01
  %68 = fcmp ult double %.092, 0.000000e+00
  br i1 %68, label %69, label %.thread

69:                                               ; preds = %65
  %70 = fcmp ult double %.093, 0.000000e+00
  br i1 %70, label %.thread100, label %77

.thread:                                          ; preds = %65
  %71 = tail call double @sqrt(double noundef %.092) #8
  %72 = fmul double %71, 5.000000e-01
  %73 = fadd double %67, %72
  %74 = fsub double %73, %66
  store double %74, ptr %5, align 8
  %75 = fsub double %74, %71
  store double %75, ptr %6, align 8
  %76 = fcmp ult double %.093, 0.000000e+00
  br i1 %76, label %.thread100, label %83

77:                                               ; preds = %69
  %78 = tail call double @sqrt(double noundef %.093) #8
  %79 = fmul double %78, 5.000000e-01
  %80 = fsub double %79, %67
  %81 = fsub double %80, %66
  store double %81, ptr %5, align 8
  %82 = fsub double %81, %78
  store double %82, ptr %6, align 8
  br label %.thread100

83:                                               ; preds = %.thread
  %84 = tail call double @sqrt(double noundef %.093) #8
  %85 = fmul double %84, 5.000000e-01
  %86 = fsub double %85, %67
  %87 = fsub double %86, %66
  store double %87, ptr %7, align 8
  %88 = fsub double %87, %84
  store double %88, ptr %8, align 8
  br label %.thread100

.thread100:                                       ; preds = %.thread, %44, %69, %83, %77, %36, %16, %14
  %.0 = phi i32 [ %15, %14 ], [ 0, %16 ], [ 0, %36 ], [ 2, %77 ], [ 4, %83 ], [ 0, %69 ], [ 0, %44 ], [ 2, %.thread ]
  ret i32 %.0
}